
tmp/kernel.elf:     file format elf32-littlearm


Disassembly of section .init:

00008000 <_start>:
    8000:	ea000055 	b	815c <main>

Disassembly of section .text:

00008004 <st_sleep>:
    8004:	e59f1024 	ldr	r1, [pc, #36]	; 8030 <st_get_timestamp+0xc>
    8008:	e5911000 	ldr	r1, [r1]
    800c:	e0800001 	add	r0, r0, r1

00008010 <sleep_loop$>:
    8010:	e59f1018 	ldr	r1, [pc, #24]	; 8030 <st_get_timestamp+0xc>
    8014:	e5911000 	ldr	r1, [r1]
    8018:	e1510000 	cmp	r1, r0
    801c:	3afffffb 	bcc	8010 <sleep_loop$>
    8020:	e1a0f00e 	mov	pc, lr

00008024 <st_get_timestamp>:
    8024:	e59f0004 	ldr	r0, [pc, #4]	; 8030 <st_get_timestamp+0xc>
    8028:	e1c000d0 	ldrd	r0, [r0]
    802c:	e1a0f00e 	mov	pc, lr
    8030:	20003004 	andcs	r3, r0, r4

00008034 <gpio_set_function>:
    8034:	e3500035 	cmp	r0, #53	; 0x35
    8038:	93510007 	cmpls	r1, #7
    803c:	81a0f00e 	movhi	pc, lr
    8040:	e59f2094 	ldr	r2, [pc, #148]	; 80dc <gpio_blink+0x2c>

00008044 <gpio_set_function_loop$>:
    8044:	e3500009 	cmp	r0, #9
    8048:	8240000a 	subhi	r0, r0, #10
    804c:	82822004 	addhi	r2, r2, #4
    8050:	8afffffb 	bhi	8044 <gpio_set_function_loop$>
    8054:	e0800080 	add	r0, r0, r0, lsl #1
    8058:	e3a03007 	mov	r3, #7
    805c:	e1a03013 	lsl	r3, r3, r0
    8060:	e1a01011 	lsl	r1, r1, r0
    8064:	e5920000 	ldr	r0, [r2]
    8068:	e1c00003 	bic	r0, r0, r3
    806c:	e0800001 	add	r0, r0, r1
    8070:	e5820000 	str	r0, [r2]
    8074:	e1a0f00e 	mov	pc, lr

00008078 <gpio_output>:
    8078:	e3500035 	cmp	r0, #53	; 0x35
    807c:	93510001 	cmpls	r1, #1
    8080:	81a0f00e 	movhi	pc, lr
    8084:	e3510001 	cmp	r1, #1
    8088:	159f2050 	ldrne	r2, [pc, #80]	; 80e0 <gpio_blink+0x30>
    808c:	059f2050 	ldreq	r2, [pc, #80]	; 80e4 <gpio_blink+0x34>

00008090 <gpio_output_loop$>:
    8090:	e350001f 	cmp	r0, #31
    8094:	82400020 	subhi	r0, r0, #32
    8098:	82822004 	addhi	r2, r2, #4
    809c:	8afffffb 	bhi	8090 <gpio_output_loop$>
    80a0:	e3a01001 	mov	r1, #1
    80a4:	e1a01011 	lsl	r1, r1, r0
    80a8:	e5821000 	str	r1, [r2]
    80ac:	e1a0f00e 	mov	pc, lr

000080b0 <gpio_blink>:
    80b0:	e52de004 	push	{lr}		; (str lr, [sp, #-4]!)
    80b4:	e1a03000 	mov	r3, r0
    80b8:	e52d1004 	push	{r1}		; (str r1, [sp, #-4]!)
    80bc:	e3a01001 	mov	r1, #1
    80c0:	ebffffec 	bl	8078 <gpio_output>
    80c4:	e49d0004 	pop	{r0}		; (ldr r0, [sp], #4)
    80c8:	ebffffcd 	bl	8004 <st_sleep>
    80cc:	e1a00003 	mov	r0, r3
    80d0:	e3a01000 	mov	r1, #0
    80d4:	ebffffe7 	bl	8078 <gpio_output>
    80d8:	e49df004 	pop	{pc}		; (ldr pc, [sp], #4)
    80dc:	20200000 	eorcs	r0, r0, r0
    80e0:	20200028 	eorcs	r0, r0, r8, lsr #32
    80e4:	2020001c 	eorcs	r0, r0, ip, lsl r0

000080e8 <misc_morse_pattern>:
    80e8:	e52de004 	push	{lr}		; (str lr, [sp, #-4]!)
    80ec:	e52d4004 	push	{r4}		; (str r4, [sp, #-4]!)
    80f0:	e52d5004 	push	{r5}		; (str r5, [sp, #-4]!)
    80f4:	e52d6004 	push	{r6}		; (str r6, [sp, #-4]!)
    80f8:	e52d7004 	push	{r7}		; (str r7, [sp, #-4]!)
    80fc:	e1a04000 	mov	r4, r0
    8100:	e3a05000 	mov	r5, #0
    8104:	e3a06003 	mov	r6, #3
    8108:	e1a07001 	mov	r7, r1

0000810c <morse_loop$>:
    810c:	e1a00004 	mov	r0, r4
    8110:	e3a01000 	mov	r1, #0
    8114:	e0851005 	add	r1, r5, r5
    8118:	e1a00130 	lsr	r0, r0, r1
    811c:	e0100006 	ands	r0, r0, r6
    8120:	0a000006 	beq	8140 <morse_end$>
    8124:	e0010097 	mul	r1, r7, r0
    8128:	e3a0002f 	mov	r0, #47	; 0x2f
    812c:	ebffffdf 	bl	80b0 <gpio_blink>
    8130:	e2855001 	add	r5, r5, #1
    8134:	e1a00007 	mov	r0, r7
    8138:	ebffffb1 	bl	8004 <st_sleep>
    813c:	eafffff2 	b	810c <morse_loop$>

00008140 <morse_end$>:
    8140:	e0870087 	add	r0, r7, r7, lsl #1
    8144:	ebffffae 	bl	8004 <st_sleep>
    8148:	e49d7004 	pop	{r7}		; (ldr r7, [sp], #4)
    814c:	e49d6004 	pop	{r6}		; (ldr r6, [sp], #4)
    8150:	e49d5004 	pop	{r5}		; (ldr r5, [sp], #4)
    8154:	e49d4004 	pop	{r4}		; (ldr r4, [sp], #4)
    8158:	e49df004 	pop	{pc}		; (ldr pc, [sp], #4)

0000815c <main>:
    815c:	e3a0d902 	mov	sp, #32768	; 0x8000
    8160:	e3a0002f 	mov	r0, #47	; 0x2f
    8164:	e3a01001 	mov	r1, #1
    8168:	ebffffb1 	bl	8034 <gpio_set_function>
    816c:	e3a00023 	mov	r0, #35	; 0x23
    8170:	e3a01001 	mov	r1, #1
    8174:	ebffffae 	bl	8034 <gpio_set_function>
    8178:	e3a00023 	mov	r0, #35	; 0x23
    817c:	e3a01001 	mov	r1, #1
    8180:	ebffffbc 	bl	8078 <gpio_output>
    8184:	e3a0002f 	mov	r0, #47	; 0x2f
    8188:	e3a01000 	mov	r1, #0
    818c:	ebffffb9 	bl	8078 <gpio_output>
    8190:	e59f407c 	ldr	r4, [pc, #124]	; 8214 <loop$+0x80>

00008194 <loop$>:
    8194:	e59f207c 	ldr	r2, [pc, #124]	; 8218 <loop$+0x84>
    8198:	e5920000 	ldr	r0, [r2]
    819c:	e1a01004 	mov	r1, r4
    81a0:	ebffffd0 	bl	80e8 <misc_morse_pattern>
    81a4:	e59f2070 	ldr	r2, [pc, #112]	; 821c <loop$+0x88>
    81a8:	e5920000 	ldr	r0, [r2]
    81ac:	e1a01004 	mov	r1, r4
    81b0:	ebffffcc 	bl	80e8 <misc_morse_pattern>
    81b4:	e59f2064 	ldr	r2, [pc, #100]	; 8220 <loop$+0x8c>
    81b8:	e5920000 	ldr	r0, [r2]
    81bc:	e1a01004 	mov	r1, r4
    81c0:	ebffffc8 	bl	80e8 <misc_morse_pattern>
    81c4:	e59f2058 	ldr	r2, [pc, #88]	; 8224 <loop$+0x90>
    81c8:	e5920000 	ldr	r0, [r2]
    81cc:	e1a01004 	mov	r1, r4
    81d0:	ebffffc4 	bl	80e8 <misc_morse_pattern>
    81d4:	e59f204c 	ldr	r2, [pc, #76]	; 8228 <loop$+0x94>
    81d8:	e5920000 	ldr	r0, [r2]
    81dc:	e1a01004 	mov	r1, r4
    81e0:	ebffffc0 	bl	80e8 <misc_morse_pattern>
    81e4:	e59f202c 	ldr	r2, [pc, #44]	; 8218 <loop$+0x84>
    81e8:	e5920000 	ldr	r0, [r2]
    81ec:	e1a01004 	mov	r1, r4
    81f0:	ebffffbc 	bl	80e8 <misc_morse_pattern>
    81f4:	e59f2030 	ldr	r2, [pc, #48]	; 822c <loop$+0x98>
    81f8:	e5920000 	ldr	r0, [r2]
    81fc:	e1a01004 	mov	r1, r4
    8200:	ebffffb8 	bl	80e8 <misc_morse_pattern>
    8204:	e0840084 	add	r0, r4, r4, lsl #1
    8208:	e1a00080 	lsl	r0, r0, #1
    820c:	ebffff7c 	bl	8004 <st_sleep>
    8210:	eaffffdf 	b	8194 <loop$>
    8214:	000249f0 	strdeq	r4, [r2], -r0
    8218:	00008230 	andeq	r8, r0, r0, lsr r2
    821c:	00008264 	andeq	r8, r0, r4, ror #4
    8220:	0000823c 	andeq	r8, r0, ip, lsr r2
    8224:	00008274 	andeq	r8, r0, r4, ror r2
    8228:	00008240 	andeq	r8, r0, r0, asr #4
    822c:	00008278 	andeq	r8, r0, r8, ror r2

Disassembly of section .data:

00008230 <letter_a>:
    8230:	0000000d 	andeq	r0, r0, sp

00008234 <letter_b>:
    8234:	00000057 	andeq	r0, r0, r7, asr r0

00008238 <letter_c>:
    8238:	00000077 	andeq	r0, r0, r7, ror r0

0000823c <letter_d>:
    823c:	00000017 	andeq	r0, r0, r7, lsl r0

00008240 <letter_e>:
    8240:	00000001 	andeq	r0, r0, r1

00008244 <letter_f>:
    8244:	00000075 	andeq	r0, r0, r5, ror r0

00008248 <letter_g>:
    8248:	0000001f 	andeq	r0, r0, pc, lsl r0

0000824c <letter_h>:
    824c:	00000055 	andeq	r0, r0, r5, asr r0

00008250 <letter_i>:
    8250:	00000005 	andeq	r0, r0, r5

00008254 <letter_j>:
    8254:	000000fd 	strdeq	r0, [r0], -sp

00008258 <letter_k>:
    8258:	00000037 	andeq	r0, r0, r7, lsr r0

0000825c <letter_l>:
    825c:	0000005d 	andeq	r0, r0, sp, asr r0

00008260 <letter_m>:
    8260:	0000000f 	andeq	r0, r0, pc

00008264 <letter_n>:
    8264:	00000007 	andeq	r0, r0, r7

00008268 <letter_o>:
    8268:	0000003f 	andeq	r0, r0, pc, lsr r0

0000826c <letter_p>:
    826c:	0000007d 	andeq	r0, r0, sp, ror r0

00008270 <letter_q>:
    8270:	000000df 	ldrdeq	r0, [r0], -pc	; <UNPREDICTABLE>

00008274 <letter_r>:
    8274:	0000001d 	andeq	r0, r0, sp, lsl r0

00008278 <letter_s>:
    8278:	00000015 	andeq	r0, r0, r5, lsl r0

0000827c <letter_t>:
    827c:	00000003 	andeq	r0, r0, r3

00008280 <letter_u>:
    8280:	00000035 	andeq	r0, r0, r5, lsr r0

00008284 <letter_v>:
    8284:	000000d5 	ldrdeq	r0, [r0], -r5

00008288 <letter_w>:
    8288:	0000003d 	andeq	r0, r0, sp, lsr r0

0000828c <letter_x>:
    828c:	000000d7 	ldrdeq	r0, [r0], -r7

00008290 <letter_y>:
    8290:	000000f7 	strdeq	r0, [r0], -r7

00008294 <letter_z>:
    8294:	0000005f 	andeq	r0, r0, pc, asr r0
