
tmp/kernel.elf:     file format elf32-littlearm


Disassembly of section .init:

00008000 <_start>:
    8000:	ea00002c 	b	80b8 <main>

Disassembly of section .text:

00008004 <gpio_set_function>:
    8004:	e3500035 	cmp	r0, #53	; 0x35
    8008:	93510007 	cmpls	r1, #7
    800c:	81a0f00e 	movhi	pc, lr
    8010:	e59f2094 	ldr	r2, [pc, #148]	; 80ac <gpio_blink+0x2c>

00008014 <gpio_set_function_loop$>:
    8014:	e3500009 	cmp	r0, #9
    8018:	8240000a 	subhi	r0, r0, #10
    801c:	82822004 	addhi	r2, r2, #4
    8020:	8afffffb 	bhi	8014 <gpio_set_function_loop$>
    8024:	e0800080 	add	r0, r0, r0, lsl #1
    8028:	e3a03007 	mov	r3, #7
    802c:	e1a03013 	lsl	r3, r3, r0
    8030:	e1a01011 	lsl	r1, r1, r0
    8034:	e5920000 	ldr	r0, [r2]
    8038:	e1c00003 	bic	r0, r0, r3
    803c:	e0800001 	add	r0, r0, r1
    8040:	e5820000 	str	r0, [r2]
    8044:	e1a0f00e 	mov	pc, lr

00008048 <gpio_output>:
    8048:	e3500035 	cmp	r0, #53	; 0x35
    804c:	93510001 	cmpls	r1, #1
    8050:	81a0f00e 	movhi	pc, lr
    8054:	e3510001 	cmp	r1, #1
    8058:	159f2050 	ldrne	r2, [pc, #80]	; 80b0 <gpio_blink+0x30>
    805c:	059f2050 	ldreq	r2, [pc, #80]	; 80b4 <gpio_blink+0x34>

00008060 <gpio_output_loop$>:
    8060:	e350001f 	cmp	r0, #31
    8064:	82400020 	subhi	r0, r0, #32
    8068:	82822004 	addhi	r2, r2, #4
    806c:	8afffffb 	bhi	8060 <gpio_output_loop$>
    8070:	e3a01001 	mov	r1, #1
    8074:	e1a01011 	lsl	r1, r1, r0
    8078:	e5821000 	str	r1, [r2]
    807c:	e1a0f00e 	mov	pc, lr

00008080 <gpio_blink>:
    8080:	e52de004 	push	{lr}		; (str lr, [sp, #-4]!)
    8084:	e1a02001 	mov	r2, r1
    8088:	e3a01001 	mov	r1, #1
    808c:	ebffffed 	bl	8048 <gpio_output>
    8090:	e1a03000 	mov	r3, r0
    8094:	e1a00002 	mov	r0, r2
    8098:	eb000025 	bl	8134 <sleep>
    809c:	e1a00003 	mov	r0, r3
    80a0:	e3a01000 	mov	r1, #0
    80a4:	ebffffe7 	bl	8048 <gpio_output>
    80a8:	e49df004 	pop	{pc}		; (ldr pc, [sp], #4)
    80ac:	20200000 	eorcs	r0, r0, r0
    80b0:	20200028 	eorcs	r0, r0, r8, lsr #32
    80b4:	2020001c 	eorcs	r0, r0, ip, lsl r0

000080b8 <main>:
    80b8:	e3a0d902 	mov	sp, #32768	; 0x8000
    80bc:	e3a0002f 	mov	r0, #47	; 0x2f
    80c0:	e3a01001 	mov	r1, #1
    80c4:	ebffffce 	bl	8004 <gpio_set_function>
    80c8:	e3a00023 	mov	r0, #35	; 0x23
    80cc:	e3a01001 	mov	r1, #1
    80d0:	ebffffcb 	bl	8004 <gpio_set_function>

000080d4 <loop$>:
    80d4:	e3a00023 	mov	r0, #35	; 0x23
    80d8:	e3a01000 	mov	r1, #0
    80dc:	ebffffd9 	bl	8048 <gpio_output>
    80e0:	e3a0002f 	mov	r0, #47	; 0x2f
    80e4:	e3a01000 	mov	r1, #0
    80e8:	ebffffd6 	bl	8048 <gpio_output>
    80ec:	e3a00603 	mov	r0, #3145728	; 0x300000
    80f0:	eb00000f 	bl	8134 <sleep>
    80f4:	e3a0002f 	mov	r0, #47	; 0x2f
    80f8:	e3a01001 	mov	r1, #1
    80fc:	ebffffd1 	bl	8048 <gpio_output>
    8100:	e3a00602 	mov	r0, #2097152	; 0x200000
    8104:	eb00000a 	bl	8134 <sleep>
    8108:	e3a00023 	mov	r0, #35	; 0x23
    810c:	e3a01001 	mov	r1, #1
    8110:	ebffffcc 	bl	8048 <gpio_output>
    8114:	e3a00603 	mov	r0, #3145728	; 0x300000
    8118:	eb000005 	bl	8134 <sleep>
    811c:	e3a0002f 	mov	r0, #47	; 0x2f
    8120:	e3a01000 	mov	r1, #0
    8124:	ebffffc7 	bl	8048 <gpio_output>
    8128:	e3a00602 	mov	r0, #2097152	; 0x200000
    812c:	eb000000 	bl	8134 <sleep>
    8130:	eaffffe7 	b	80d4 <loop$>

00008134 <sleep>:
    8134:	e2400001 	sub	r0, r0, #1
    8138:	e3500000 	cmp	r0, #0
    813c:	1afffffc 	bne	8134 <sleep>
    8140:	e1a0f00e 	mov	pc, lr

00008144 <st_get_timestamp>:
    8144:	e59f0004 	ldr	r0, [pc, #4]	; 8150 <st_get_timestamp+0xc>
    8148:	e1c000d0 	ldrd	r0, [r0]
    814c:	e1a0f00e 	mov	pc, lr
    8150:	20003004 	andcs	r3, r0, r4
